target datalayout = "e-m:e-p270:32:32-p271:32:32-p272:64:64-i64:64-i128:128-f80:128-n8:16:32:64-S128"
target triple = "x86_64-pc-linux-gnu"

%struct.XLogRecoveryCtlData = type { i8, i8, %struct.Latch, i64, i64, i32, i64, i32, i64, i64, i32, %struct.ConditionVariable, i8 }
%struct.Latch = type { i32, i32, i8, i32 }
%struct.ConditionVariable = type { i8, %struct.proclist_head }
%struct.proclist_head = type { i32, i32 }
%struct.XLogReaderRoutine = type { ptr, ptr, ptr }
%struct.XLogReaderState = type { %struct.XLogReaderRoutine, i64, ptr, i64, i64, i64, i64, i64, i64, i64, i64, ptr, ptr, i64, i8, ptr, ptr, ptr, ptr, ptr, i32, %struct.WALSegmentContext, %struct.WALOpenSegment, i32, i64, i32, i64, i32, i64, i32, ptr, i32, ptr, i8, i8 }
%struct.WALSegmentContext = type { [1024 x i8], i32 }
%struct.WALOpenSegment = type { i32, i64, i32 }
%struct.EndOfWalRecoveryInfo = type { i64, i32, i64, i32, i64, ptr, i64, i64, ptr, i8, i8 }

@recoveryTarget = dso_local global i32 0, align 4
@ArchiveRecoveryRequested = dso_local global i8 0, align 1
@InArchiveRecovery = dso_local global i8 0, align 1
@StandbyMode = dso_local global i8 0, align 1
@XLogRecoveryCtl = internal global ptr null, align 8
@xlogreader = internal global ptr null, align 8
@xlogprefetcher = internal global ptr null, align 8
@CheckPointLoc = internal global i64 0, align 8
@CheckPointTLI = internal global i32 0, align 4
@InRecovery = external global i8, align 1
@abortedRecPtr = internal global i64 0, align 8
@missingContrecPtr = internal global i64 0, align 8
@readFile = internal global i32 -1, align 4
@standby_signal_file_found = internal global i8 0, align 1
@recovery_signal_file_found = internal global i8 0, align 1
@recoveryStopAfter = internal global i8 0, align 1
@recoveryStopXid = internal global i32 0, align 4
@recoveryStopLSN = internal global i64 0, align 8
@recoveryStopTime = internal global i64 0, align 8
@recoveryStopName = internal global [64 x i8] zeroinitializer, align 16
@.str.141 = private unnamed_addr constant [18 x i8] c"%s transaction %u\00", align 1
@.str.142 = private unnamed_addr constant [6 x i8] c"after\00", align 1
@.str.143 = private unnamed_addr constant [7 x i8] c"before\00", align 1
@.str.144 = private unnamed_addr constant [7 x i8] c"%s %s\0A\00", align 1
@.str.145 = private unnamed_addr constant [14 x i8] c"%s LSN %X/%X\0A\00", align 1
@.str.146 = private unnamed_addr constant [22 x i8] c"at restore point \22%s\22\00", align 1
@.str.147 = private unnamed_addr constant [20 x i8] c"reached consistency\00", align 1
@.str.148 = private unnamed_addr constant [29 x i8] c"no recovery target specified\00", align 1

; Function Attrs: nounwind uwtable
define internal ptr @getRecoveryStopReason() #0 {
  %1 = alloca [200 x i8], align 16
  %2 = alloca i32, align 4
  call void @llvm.lifetime.start.p0(i64 200, ptr %1) #14
  %3 = load i32, ptr @recoveryTarget, align 4
  %4 = icmp eq i32 %3, 1
  br i1 %4, label %5, label %12

5:                                                ; preds = %0
  %6 = getelementptr inbounds [200 x i8], ptr %1, i64 0, i64 0
  %7 = load i8, ptr @recoveryStopAfter, align 1, !range !4, !noundef !5
  %8 = trunc i8 %7 to i1
  %9 = select i1 %8, ptr @.str.142, ptr @.str.143
  %10 = load i32, ptr @recoveryStopXid, align 4
  %11 = call i32 (ptr, i64, ptr, ...) @pg_snprintf(ptr noundef %6, i64 noundef 200, ptr noundef @.str.141, ptr noundef %9, i32 noundef %10)
  br label %59

12:                                               ; preds = %0
  %13 = load i32, ptr @recoveryTarget, align 4
  %14 = icmp eq i32 %13, 2
  br i1 %14, label %15, label %23

15:                                               ; preds = %12
  %16 = getelementptr inbounds [200 x i8], ptr %1, i64 0, i64 0
  %17 = load i8, ptr @recoveryStopAfter, align 1, !range !4, !noundef !5
  %18 = trunc i8 %17 to i1
  %19 = select i1 %18, ptr @.str.142, ptr @.str.143
  %20 = load i64, ptr @recoveryStopTime, align 8
  %21 = call ptr @timestamptz_to_str(i64 noundef %20)
  %22 = call i32 (ptr, i64, ptr, ...) @pg_snprintf(ptr noundef %16, i64 noundef 200, ptr noundef @.str.144, ptr noundef %19, ptr noundef %21)
  br label %58

23:                                               ; preds = %12
  %24 = load i32, ptr @recoveryTarget, align 4
  %25 = icmp eq i32 %24, 4
  br i1 %25, label %26, label %40

26:                                               ; preds = %23
  %27 = getelementptr inbounds [200 x i8], ptr %1, i64 0, i64 0
  %28 = load i8, ptr @recoveryStopAfter, align 1, !range !4, !noundef !5
  %29 = trunc i8 %28 to i1
  %30 = select i1 %29, ptr @.str.142, ptr @.str.143
  br label %31

31:                                               ; preds = %26
  br label %32

32:                                               ; preds = %31
  br label %33

33:                                               ; preds = %32
  store i32 1, ptr %2, align 4
  %34 = load i64, ptr @recoveryStopLSN, align 8
  %35 = lshr i64 %34, 32
  %36 = trunc i64 %35 to i32
  %37 = load i64, ptr @recoveryStopLSN, align 8
  %38 = trunc i64 %37 to i32
  %39 = call i32 (ptr, i64, ptr, ...) @pg_snprintf(ptr noundef %27, i64 noundef 200, ptr noundef @.str.145, ptr noundef %30, i32 noundef %36, i32 noundef %38)
  br label %57

40:                                               ; preds = %23
  %41 = load i32, ptr @recoveryTarget, align 4
  %42 = icmp eq i32 %41, 3
  br i1 %42, label %43, label %46

43:                                               ; preds = %40
  %44 = getelementptr inbounds [200 x i8], ptr %1, i64 0, i64 0
  %45 = call i32 (ptr, i64, ptr, ...) @pg_snprintf(ptr noundef %44, i64 noundef 200, ptr noundef @.str.146, ptr noundef @recoveryStopName)
  br label %56

46:                                               ; preds = %40
  %47 = load i32, ptr @recoveryTarget, align 4
  %48 = icmp eq i32 %47, 5
  br i1 %48, label %49, label %52

49:                                               ; preds = %46
  %50 = getelementptr inbounds [200 x i8], ptr %1, i64 0, i64 0
  %51 = call i32 (ptr, i64, ptr, ...) @pg_snprintf(ptr noundef %50, i64 noundef 200, ptr noundef @.str.147)
  br label %55

52:                                               ; preds = %46
  %53 = getelementptr inbounds [200 x i8], ptr %1, i64 0, i64 0
  %54 = call i32 (ptr, i64, ptr, ...) @pg_snprintf(ptr noundef %53, i64 noundef 200, ptr noundef @.str.148)
  br label %55

55:                                               ; preds = %52, %49
  br label %56

56:                                               ; preds = %55, %43
  br label %57

57:                                               ; preds = %56, %33
  br label %58

58:                                               ; preds = %57, %15
  br label %59

59:                                               ; preds = %58, %5
  %60 = getelementptr inbounds [200 x i8], ptr %1, i64 0, i64 0
  %61 = call ptr @pstrdup(ptr noundef %60)
  call void @llvm.lifetime.end.p0(i64 200, ptr %1) #14
  ret ptr %61
}

; Function Attrs: nounwind uwtable
define dso_local ptr @FinishWalRecovery() #0 {
  %1 = alloca ptr, align 8
  %2 = alloca i64, align 8
  %3 = alloca i32, align 4
  %4 = alloca i64, align 8
  %5 = alloca ptr, align 8
  %6 = alloca i32, align 4
  %7 = alloca i64, align 8
  call void @llvm.lifetime.start.p0(i64 8, ptr %1) #14
  %8 = call ptr @palloc(i64 noundef 80)
  store ptr %8, ptr %1, align 8
  call void @llvm.lifetime.start.p0(i64 8, ptr %2) #14
  call void @llvm.lifetime.start.p0(i64 4, ptr %3) #14
  call void @llvm.lifetime.start.p0(i64 8, ptr %4) #14
  call void @XLogShutdownWalRcv()
  call void @ShutDownSlotSync()
  store i8 0, ptr @StandbyMode, align 1
  %9 = load i8, ptr @InRecovery, align 1, !range !4, !noundef !5
  %10 = trunc i8 %9 to i1
  br i1 %10, label %14, label %11

11:                                               ; preds = %0
  %12 = load i64, ptr @CheckPointLoc, align 8
  store i64 %12, ptr %2, align 8
  %13 = load i32, ptr @CheckPointTLI, align 4
  store i32 %13, ptr %3, align 4
  br label %21

14:                                               ; preds = %0
  %15 = load ptr, ptr @XLogRecoveryCtl, align 8
  %16 = getelementptr inbounds nuw %struct.XLogRecoveryCtlData, ptr %15, i32 0, i32 3
  %17 = load i64, ptr %16, align 8
  store i64 %17, ptr %2, align 8
  %18 = load ptr, ptr @XLogRecoveryCtl, align 8
  %19 = getelementptr inbounds nuw %struct.XLogRecoveryCtlData, ptr %18, i32 0, i32 5
  %20 = load i32, ptr %19, align 8
  store i32 %20, ptr %3, align 4
  br label %21

21:                                               ; preds = %14, %11
  %22 = load ptr, ptr @xlogprefetcher, align 8
  %23 = load i64, ptr %2, align 8
  call void @XLogPrefetcherBeginRead(ptr noundef %22, i64 noundef %23)
  %24 = load ptr, ptr @xlogprefetcher, align 8
  %25 = load i32, ptr %3, align 4
  %26 = call ptr @ReadRecord(ptr noundef %24, i32 noundef 23, i1 noundef zeroext false, i32 noundef %25)
  %27 = load ptr, ptr @xlogreader, align 8
  %28 = getelementptr inbounds nuw %struct.XLogReaderState, ptr %27, i32 0, i32 4
  %29 = load i64, ptr %28, align 8
  store i64 %29, ptr %4, align 8
  %30 = load ptr, ptr @xlogreader, align 8
  %31 = getelementptr inbounds nuw %struct.XLogReaderState, ptr %30, i32 0, i32 22
  %32 = getelementptr inbounds nuw %struct.WALOpenSegment, ptr %31, i32 0, i32 2
  %33 = load i32, ptr %32, align 8
  %34 = load ptr, ptr %1, align 8
  %35 = getelementptr inbounds nuw %struct.EndOfWalRecoveryInfo, ptr %34, i32 0, i32 3
  store i32 %33, ptr %35, align 8
  %36 = load i8, ptr @ArchiveRecoveryRequested, align 1, !range !4, !noundef !5
  %37 = trunc i8 %36 to i1
  br i1 %37, label %38, label %45

38:                                               ; preds = %21
  store i8 0, ptr @InArchiveRecovery, align 1
  %39 = load i32, ptr @readFile, align 4
  %40 = icmp sge i32 %39, 0
  br i1 %40, label %41, label %44

41:                                               ; preds = %38
  %42 = load i32, ptr @readFile, align 4
  %43 = call i32 @close(i32 noundef %42)
  store i32 -1, ptr @readFile, align 4
  br label %44

44:                                               ; preds = %41, %38
  br label %45

45:                                               ; preds = %44, %21
  %46 = load i64, ptr %4, align 8
  %47 = urem i64 %46, 8192
  %48 = icmp ne i64 %47, 0
  br i1 %48, label %49, label %72

49:                                               ; preds = %45
  call void @llvm.lifetime.start.p0(i64 8, ptr %5) #14
  call void @llvm.lifetime.start.p0(i64 4, ptr %6) #14
  call void @llvm.lifetime.start.p0(i64 8, ptr %7) #14
  %50 = load i64, ptr %4, align 8
  %51 = load i64, ptr %4, align 8
  %52 = urem i64 %51, 8192
  %53 = sub i64 %50, %52
  store i64 %53, ptr %7, align 8
  %54 = load i64, ptr %4, align 8
  %55 = urem i64 %54, 8192
  %56 = trunc i64 %55 to i32
  store i32 %56, ptr %6, align 4
  %57 = load i32, ptr %6, align 4
  %58 = sext i32 %57 to i64
  %59 = call ptr @palloc(i64 noundef %58)
  store ptr %59, ptr %5, align 8
  %60 = load ptr, ptr %5, align 8
  %61 = load ptr, ptr @xlogreader, align 8
  %62 = getelementptr inbounds nuw %struct.XLogReaderState, ptr %61, i32 0, i32 19
  %63 = load ptr, ptr %62, align 8
  %64 = load i32, ptr %6, align 4
  %65 = sext i32 %64 to i64
  call void @llvm.memcpy.p0.p0.i64(ptr align 1 %60, ptr align 1 %63, i64 %65, i1 false)
  %66 = load i64, ptr %7, align 8
  %67 = load ptr, ptr %1, align 8
  %68 = getelementptr inbounds nuw %struct.EndOfWalRecoveryInfo, ptr %67, i32 0, i32 4
  store i64 %66, ptr %68, align 8
  %69 = load ptr, ptr %5, align 8
  %70 = load ptr, ptr %1, align 8
  %71 = getelementptr inbounds nuw %struct.EndOfWalRecoveryInfo, ptr %70, i32 0, i32 5
  store ptr %69, ptr %71, align 8
  call void @llvm.lifetime.end.p0(i64 8, ptr %7) #14
  call void @llvm.lifetime.end.p0(i64 4, ptr %6) #14
  call void @llvm.lifetime.end.p0(i64 8, ptr %5) #14
  br label %78

72:                                               ; preds = %45
  %73 = load i64, ptr %4, align 8
  %74 = load ptr, ptr %1, align 8
  %75 = getelementptr inbounds nuw %struct.EndOfWalRecoveryInfo, ptr %74, i32 0, i32 4
  store i64 %73, ptr %75, align 8
  %76 = load ptr, ptr %1, align 8
  %77 = getelementptr inbounds nuw %struct.EndOfWalRecoveryInfo, ptr %76, i32 0, i32 5
  store ptr null, ptr %77, align 8
  br label %78

78:                                               ; preds = %72, %49
  %79 = call ptr @getRecoveryStopReason()
  %80 = load ptr, ptr %1, align 8
  %81 = getelementptr inbounds nuw %struct.EndOfWalRecoveryInfo, ptr %80, i32 0, i32 8
  store ptr %79, ptr %81, align 8
  %82 = load i64, ptr %2, align 8
  %83 = load ptr, ptr %1, align 8
  %84 = getelementptr inbounds nuw %struct.EndOfWalRecoveryInfo, ptr %83, i32 0, i32 0
  store i64 %82, ptr %84, align 8
  %85 = load i32, ptr %3, align 4
  %86 = load ptr, ptr %1, align 8
  %87 = getelementptr inbounds nuw %struct.EndOfWalRecoveryInfo, ptr %86, i32 0, i32 1
  store i32 %85, ptr %87, align 8
  %88 = load i64, ptr %4, align 8
  %89 = load ptr, ptr %1, align 8
  %90 = getelementptr inbounds nuw %struct.EndOfWalRecoveryInfo, ptr %89, i32 0, i32 2
  store i64 %88, ptr %90, align 8
  %91 = load i64, ptr @abortedRecPtr, align 8
  %92 = load ptr, ptr %1, align 8
  %93 = getelementptr inbounds nuw %struct.EndOfWalRecoveryInfo, ptr %92, i32 0, i32 6
  store i64 %91, ptr %93, align 8
  %94 = load i64, ptr @missingContrecPtr, align 8
  %95 = load ptr, ptr %1, align 8
  %96 = getelementptr inbounds nuw %struct.EndOfWalRecoveryInfo, ptr %95, i32 0, i32 7
  store i64 %94, ptr %96, align 8
  %97 = load i8, ptr @standby_signal_file_found, align 1, !range !4, !noundef !5
  %98 = trunc i8 %97 to i1
  %99 = load ptr, ptr %1, align 8
  %100 = getelementptr inbounds nuw %struct.EndOfWalRecoveryInfo, ptr %99, i32 0, i32 9
  %101 = zext i1 %98 to i8
  store i8 %101, ptr %100, align 8
  %102 = load i8, ptr @recovery_signal_file_found, align 1, !range !4, !noundef !5
  %103 = trunc i8 %102 to i1
  %104 = load ptr, ptr %1, align 8
  %105 = getelementptr inbounds nuw %struct.EndOfWalRecoveryInfo, ptr %104, i32 0, i32 10
  %106 = zext i1 %103 to i8
  store i8 %106, ptr %105, align 1
  %107 = load ptr, ptr %1, align 8
  call void @llvm.lifetime.end.p0(i64 8, ptr %4) #14
  call void @llvm.lifetime.end.p0(i64 4, ptr %3) #14
  call void @llvm.lifetime.end.p0(i64 8, ptr %2) #14
  call void @llvm.lifetime.end.p0(i64 8, ptr %1) #14
  ret ptr %107
}