; Function Attrs: nounwind uwtable
define dso_local ptr @FinishWalRecovery() local_unnamed_addr #2 {
  %1 = alloca [200 x i8], align 16
  %2 = tail call ptr @palloc(i64 noundef 80) #23
  tail call void @XLogShutdownWalRcv() #23
  tail call void @ShutDownSlotSync() #23
  store i8 0, ptr @StandbyMode, align 1
  %3 = load i8, ptr @InRecovery, align 1, !range !4, !noundef !5
  %4 = trunc nuw i8 %3 to i1
  %5 = load ptr, ptr @XLogRecoveryCtl, align 8
  %6 = getelementptr inbounds nuw i8, ptr %5, i64 24
  %7 = getelementptr inbounds nuw i8, ptr %5, i64 40
  %.028.in = select i1 %4, ptr %7, ptr @CheckPointTLI
  %.0.in = select i1 %4, ptr %6, ptr @CheckPointLoc
  %.0 = load i64, ptr %.0.in, align 8
  %.028 = load i32, ptr %.028.in, align 4
  %8 = load ptr, ptr @xlogprefetcher, align 8
  tail call void @XLogPrefetcherBeginRead(ptr noundef %8, i64 noundef %.0) #23
  %9 = load ptr, ptr @xlogprefetcher, align 8
  %10 = tail call fastcc ptr @ReadRecord(ptr noundef %9, i32 noundef 23, i1 noundef zeroext false, i32 noundef %.028)
  %11 = load ptr, ptr @xlogreader, align 8
  %12 = getelementptr inbounds nuw i8, ptr %11, i64 48
  %13 = load i64, ptr %12, align 8
  %14 = getelementptr inbounds nuw i8, ptr %11, i64 1224
  %15 = load i32, ptr %14, align 8
  %16 = getelementptr inbounds nuw i8, ptr %2, i64 24
  store i32 %15, ptr %16, align 8
  %17 = load i8, ptr @ArchiveRecoveryRequested, align 1, !range !4, !noundef !5
  %18 = trunc nuw i8 %17 to i1
  br i1 %18, label %19, label %24

19:                                               ; preds = %0
  store i8 0, ptr @InArchiveRecovery, align 1
  %20 = load i32, ptr @readFile, align 4
  %21 = icmp sgt i32 %20, -1
  br i1 %21, label %22, label %24

22:                                               ; preds = %19
  %23 = tail call i32 @close(i32 noundef %20) #23
  store i32 -1, ptr @readFile, align 4
  br label %24

24:                                               ; preds = %19, %22, %0
  %25 = and i64 %13, 8191
  %.not = icmp eq i64 %25, 0
  br i1 %.not, label %32, label %26

26:                                               ; preds = %24
  %27 = and i64 %13, -8192
  %28 = tail call ptr @palloc(i64 noundef %25) #23
  %29 = load ptr, ptr @xlogreader, align 8
  %30 = getelementptr inbounds nuw i8, ptr %29, i64 168
  %31 = load ptr, ptr %30, align 8
  tail call void @llvm.memcpy.p0.p0.i64(ptr align 1 %28, ptr align 1 %31, i64 %25, i1 false)
  br label %32

32:                                               ; preds = %24, %26
  %.sink34 = phi i64 [ %27, %26 ], [ %13, %24 ]
  %.sink = phi ptr [ %28, %26 ], [ null, %24 ]
  %33 = getelementptr inbounds nuw i8, ptr %2, i64 32
  store i64 %.sink34, ptr %33, align 8
  %34 = getelementptr inbounds nuw i8, ptr %2, i64 40
  store ptr %.sink, ptr %34, align 8
  call void @llvm.lifetime.start.p0(i64 200, ptr nonnull %1) #23
  %35 = load i32, ptr @recoveryTarget, align 4
  switch i32 %35, label %56 [
    i32 1, label %36
    i32 2, label %40
    i32 4, label %45
    i32 3, label %52
    i32 5, label %54
  ]

36:                                               ; preds = %32
  %.b25.i = load i1, ptr @recoveryStopAfter, align 1
  %37 = select i1 %.b25.i, ptr @.str.142, ptr @.str.143
  %38 = load i32, ptr @recoveryStopXid, align 4
  %39 = call i32 (ptr, i64, ptr, ...) @pg_snprintf(ptr noundef nonnull %1, i64 noundef 200, ptr noundef nonnull @.str.141, ptr noundef nonnull %37, i32 noundef %38) #23
  br label %getRecoveryStopReason.exit

40:                                               ; preds = %32
  %.b14.i = load i1, ptr @recoveryStopAfter, align 1
  %41 = select i1 %.b14.i, ptr @.str.142, ptr @.str.143
  %42 = load i64, ptr @recoveryStopTime, align 8
  %43 = tail call ptr @timestamptz_to_str(i64 noundef %42) #23
  %44 = call i32 (ptr, i64, ptr, ...) @pg_snprintf(ptr noundef nonnull %1, i64 noundef 200, ptr noundef nonnull @.str.144, ptr noundef nonnull %41, ptr noundef %43) #23
  br label %getRecoveryStopReason.exit

45:                                               ; preds = %32
  %.b3.i = load i1, ptr @recoveryStopAfter, align 1
  %46 = select i1 %.b3.i, ptr @.str.142, ptr @.str.143
  %47 = load i64, ptr @recoveryStopLSN, align 8
  %48 = lshr i64 %47, 32
  %49 = trunc nuw i64 %48 to i32
  %50 = trunc i64 %47 to i32
  %51 = call i32 (ptr, i64, ptr, ...) @pg_snprintf(ptr noundef nonnull %1, i64 noundef 200, ptr noundef nonnull @.str.145, ptr noundef nonnull %46, i32 noundef %49, i32 noundef %50) #23
  br label %getRecoveryStopReason.exit

52:                                               ; preds = %32
  %53 = call i32 (ptr, i64, ptr, ...) @pg_snprintf(ptr noundef nonnull %1, i64 noundef 200, ptr noundef nonnull @.str.146, ptr noundef nonnull @recoveryStopName) #23
  br label %getRecoveryStopReason.exit

54:                                               ; preds = %32
  %55 = call i32 (ptr, i64, ptr, ...) @pg_snprintf(ptr noundef nonnull %1, i64 noundef 200, ptr noundef nonnull @.str.147) #23
  br label %getRecoveryStopReason.exit

56:                                               ; preds = %32
  %57 = call i32 (ptr, i64, ptr, ...) @pg_snprintf(ptr noundef nonnull %1, i64 noundef 200, ptr noundef nonnull @.str.148) #23
  br label %getRecoveryStopReason.exit

getRecoveryStopReason.exit:                       ; preds = %36, %40, %45, %52, %54, %56
  %58 = call ptr @pstrdup(ptr noundef nonnull %1) #23
  call void @llvm.lifetime.end.p0(i64 200, ptr nonnull %1) #23
  %59 = getelementptr inbounds nuw i8, ptr %2, i64 64
  store ptr %58, ptr %59, align 8
  store i64 %.0, ptr %2, align 8
  %60 = getelementptr inbounds nuw i8, ptr %2, i64 8
  store i32 %.028, ptr %60, align 8
  %61 = getelementptr inbounds nuw i8, ptr %2, i64 16
  store i64 %13, ptr %61, align 8
  %62 = load i64, ptr @abortedRecPtr, align 8
  %63 = getelementptr inbounds nuw i8, ptr %2, i64 48
  store i64 %62, ptr %63, align 8
  %64 = load i64, ptr @missingContrecPtr, align 8
  %65 = getelementptr inbounds nuw i8, ptr %2, i64 56
  store i64 %64, ptr %65, align 8
  %.b32 = load i1, ptr @standby_signal_file_found, align 1
  %66 = getelementptr inbounds nuw i8, ptr %2, i64 72
  %67 = zext i1 %.b32 to i8
  store i8 %67, ptr %66, align 8
  %.b3133 = load i1, ptr @recovery_signal_file_found, align 1
  %68 = getelementptr inbounds nuw i8, ptr %2, i64 73
  %69 = zext i1 %.b3133 to i8
  store i8 %69, ptr %68, align 1
  ret ptr %2
}